target datalayout = "e-m:e-p270:32:32-p271:32:32-p272:64:64-i64:64-i128:128-f80:128-n8:16:32:64-S128"
target triple = "x86_64-pc-linux-gnu"

%struct._X11SDOps = type { %struct._SurfaceDataOps, ptr, ptr, i8, i8, ptr, i64, ptr, ptr, i32, i32, ptr, ptr, i64, i32, i8, i32, i32, i64, %struct.ShmPixmapData }
%struct._SurfaceDataOps = type { ptr, ptr, ptr, ptr, ptr, ptr, ptr }
%struct.ShmPixmapData = type { ptr, i32, i8, i64, i8, i64, i64, i32, i32, i32, i32 }

@awt_display = external global ptr, align 8

; Function Attrs: nounwind uwtable
define void @Java_sun_java2d_x11_X11Renderer_XDrawRect(ptr noundef %0, ptr noundef %1, i64 noundef %2, i64 noundef %3, i32 noundef %4, i32 noundef %5, i32 noundef %6, i32 noundef %7) #0 {
  %9 = alloca ptr, align 8
  %10 = alloca ptr, align 8
  %11 = alloca i64, align 8
  %12 = alloca i64, align 8
  %13 = alloca i32, align 4
  %14 = alloca i32, align 4
  %15 = alloca i32, align 4
  %16 = alloca i32, align 4
  %17 = alloca ptr, align 8
  store ptr %0, ptr %9, align 8
  store ptr %1, ptr %10, align 8
  store i64 %2, ptr %11, align 8
  store i64 %3, ptr %12, align 8
  store i32 %4, ptr %13, align 4
  store i32 %5, ptr %14, align 4
  store i32 %6, ptr %15, align 4
  store i32 %7, ptr %16, align 4
  %18 = load i64, ptr %11, align 8
  %19 = inttoptr i64 %18 to ptr
  store ptr %19, ptr %17, align 8
  %20 = load ptr, ptr %17, align 8
  %21 = icmp eq ptr %20, null
  br i1 %21, label %28, label %22

22:                                               ; preds = %8
  %23 = load i32, ptr %15, align 4
  %24 = icmp slt i32 %23, 0
  br i1 %24, label %28, label %25

25:                                               ; preds = %22
  %26 = load i32, ptr %16, align 4
  %27 = icmp slt i32 %26, 0
  br i1 %27, label %28, label %29

28:                                               ; preds = %25, %22, %8
  br label %164

29:                                               ; preds = %25
  %30 = load i32, ptr %15, align 4
  %31 = icmp slt i32 %30, 2
  br i1 %31, label %35, label %32

32:                                               ; preds = %29
  %33 = load i32, ptr %16, align 4
  %34 = icmp slt i32 %33, 2
  br i1 %34, label %35, label %101

35:                                               ; preds = %32, %29
  %36 = load ptr, ptr @awt_display, align 8
  %37 = load ptr, ptr %17, align 8
  %38 = getelementptr inbounds %struct._X11SDOps, ptr %37, i32 0, i32 6
  %39 = load i64, ptr %38, align 8
  %40 = load i64, ptr %12, align 8
  %41 = inttoptr i64 %40 to ptr
  %42 = load i32, ptr %13, align 4
  %43 = icmp sgt i32 %42, 32767
  br i1 %43, label %44, label %45

44:                                               ; preds = %35
  br label %53

45:                                               ; preds = %35
  %46 = load i32, ptr %13, align 4
  %47 = icmp slt i32 %46, -32768
  br i1 %47, label %48, label %49

48:                                               ; preds = %45
  br label %51

49:                                               ; preds = %45
  %50 = load i32, ptr %13, align 4
  br label %51

51:                                               ; preds = %49, %48
  %52 = phi i32 [ -32768, %48 ], [ %50, %49 ]
  br label %53

53:                                               ; preds = %51, %44
  %54 = phi i32 [ 32767, %44 ], [ %52, %51 ]
  %55 = load i32, ptr %14, align 4
  %56 = icmp sgt i32 %55, 32767
  br i1 %56, label %57, label %58

57:                                               ; preds = %53
  br label %66

58:                                               ; preds = %53
  %59 = load i32, ptr %14, align 4
  %60 = icmp slt i32 %59, -32768
  br i1 %60, label %61, label %62

61:                                               ; preds = %58
  br label %64

62:                                               ; preds = %58
  %63 = load i32, ptr %14, align 4
  br label %64

64:                                               ; preds = %62, %61
  %65 = phi i32 [ -32768, %61 ], [ %63, %62 ]
  br label %66

66:                                               ; preds = %64, %57
  %67 = phi i32 [ 32767, %57 ], [ %65, %64 ]
  %68 = load i32, ptr %15, align 4
  %69 = add nsw i32 %68, 1
  %70 = icmp sgt i32 %69, 65535
  br i1 %70, label %71, label %72

71:                                               ; preds = %66
  br label %82

72:                                               ; preds = %66
  %73 = load i32, ptr %15, align 4
  %74 = add nsw i32 %73, 1
  %75 = icmp slt i32 %74, 0
  br i1 %75, label %76, label %77

76:                                               ; preds = %72
  br label %80

77:                                               ; preds = %72
  %78 = load i32, ptr %15, align 4
  %79 = add nsw i32 %78, 1
  br label %80

80:                                               ; preds = %77, %76
  %81 = phi i32 [ 0, %76 ], [ %79, %77 ]
  br label %82

82:                                               ; preds = %80, %71
  %83 = phi i32 [ 65535, %71 ], [ %81, %80 ]
  %84 = load i32, ptr %16, align 4
  %85 = add nsw i32 %84, 1
  %86 = icmp sgt i32 %85, 65535
  br i1 %86, label %87, label %88

87:                                               ; preds = %82
  br label %98

88:                                               ; preds = %82
  %89 = load i32, ptr %16, align 4
  %90 = add nsw i32 %89, 1
  %91 = icmp slt i32 %90, 0
  br i1 %91, label %92, label %93

92:                                               ; preds = %88
  br label %96

93:                                               ; preds = %88
  %94 = load i32, ptr %16, align 4
  %95 = add nsw i32 %94, 1
  br label %96

96:                                               ; preds = %93, %92
  %97 = phi i32 [ 0, %92 ], [ %95, %93 ]
  br label %98

98:                                               ; preds = %96, %87
  %99 = phi i32 [ 65535, %87 ], [ %97, %96 ]
  %100 = call i32 @XFillRectangle(ptr noundef %36, i64 noundef %39, ptr noundef %41, i32 noundef %54, i32 noundef %67, i32 noundef %83, i32 noundef %99)
  br label %161

101:                                              ; preds = %32
  %102 = load ptr, ptr @awt_display, align 8
  %103 = load ptr, ptr %17, align 8
  %104 = getelementptr inbounds %struct._X11SDOps, ptr %103, i32 0, i32 6
  %105 = load i64, ptr %104, align 8
  %106 = load i64, ptr %12, align 8
  %107 = inttoptr i64 %106 to ptr
  %108 = load i32, ptr %13, align 4
  %109 = icmp sgt i32 %108, 32767
  br i1 %109, label %110, label %111

110:                                              ; preds = %101
  br label %119

111:                                              ; preds = %101
  %112 = load i32, ptr %13, align 4
  %113 = icmp slt i32 %112, -32768
  br i1 %113, label %114, label %115

114:                                              ; preds = %111
  br label %117

115:                                              ; preds = %111
  %116 = load i32, ptr %13, align 4
  br label %117

117:                                              ; preds = %115, %114
  %118 = phi i32 [ -32768, %114 ], [ %116, %115 ]
  br label %119

119:                                              ; preds = %117, %110
  %120 = phi i32 [ 32767, %110 ], [ %118, %117 ]
  %121 = load i32, ptr %14, align 4
  %122 = icmp sgt i32 %121, 32767
  br i1 %122, label %123, label %124

123:                                              ; preds = %119
  br label %132

124:                                              ; preds = %119
  %125 = load i32, ptr %14, align 4
  %126 = icmp slt i32 %125, -32768
  br i1 %126, label %127, label %128

127:                                              ; preds = %124
  br label %130

128:                                              ; preds = %124
  %129 = load i32, ptr %14, align 4
  br label %130

130:                                              ; preds = %128, %127
  %131 = phi i32 [ -32768, %127 ], [ %129, %128 ]
  br label %132

132:                                              ; preds = %130, %123
  %133 = phi i32 [ 32767, %123 ], [ %131, %130 ]
  %134 = load i32, ptr %15, align 4
  %135 = icmp sgt i32 %134, 65535
  br i1 %135, label %136, label %137

136:                                              ; preds = %132
  br label %145

137:                                              ; preds = %132
  %138 = load i32, ptr %15, align 4
  %139 = icmp slt i32 %138, 0
  br i1 %139, label %140, label %141

140:                                              ; preds = %137
  br label %143

141:                                              ; preds = %137
  %142 = load i32, ptr %15, align 4
  br label %143

143:                                              ; preds = %141, %140
  %144 = phi i32 [ 0, %140 ], [ %142, %141 ]
  br label %145

145:                                              ; preds = %143, %136
  %146 = phi i32 [ 65535, %136 ], [ %144, %143 ]
  %147 = load i32, ptr %16, align 4
  %148 = icmp sgt i32 %147, 65535
  br i1 %148, label %149, label %150

149:                                              ; preds = %145
  br label %158

150:                                              ; preds = %145
  %151 = load i32, ptr %16, align 4
  %152 = icmp slt i32 %151, 0
  br i1 %152, label %153, label %154

153:                                              ; preds = %150
  br label %156

154:                                              ; preds = %150
  %155 = load i32, ptr %16, align 4
  br label %156

156:                                              ; preds = %154, %153
  %157 = phi i32 [ 0, %153 ], [ %155, %154 ]
  br label %158

158:                                              ; preds = %156, %149
  %159 = phi i32 [ 65535, %149 ], [ %157, %156 ]
  %160 = call i32 @XDrawRectangle(ptr noundef %102, i64 noundef %105, ptr noundef %107, i32 noundef %120, i32 noundef %133, i32 noundef %146, i32 noundef %159)
  br label %161

161:                                              ; preds = %158, %98
  %162 = load ptr, ptr %9, align 8
  %163 = load ptr, ptr %17, align 8
  call void @X11SD_DirectRenderNotify(ptr noundef %162, ptr noundef %163)
  br label %164

164:                                              ; preds = %161, %28
  ret void
}