; Function Attrs: nounwind uwtable
define void @Java_sun_java2d_x11_X11Renderer_XDrawRect(ptr noundef %0, ptr nocapture noundef readnone %1, i64 noundef %2, i64 noundef %3, i32 noundef %4, i32 noundef %5, i32 noundef %6, i32 noundef %7) local_unnamed_addr #0 {
  %9 = inttoptr i64 %2 to ptr
  %10 = icmp eq i64 %2, 0
  %11 = or i32 %7, %6
  %12 = icmp slt i32 %11, 0
  %or.cond3 = or i1 %10, %12
  br i1 %or.cond3, label %34, label %13

13:                                               ; preds = %8
  %14 = icmp slt i32 %6, 2
  %15 = icmp slt i32 %7, 2
  %or.cond5 = or i1 %14, %15
  %16 = load ptr, ptr @awt_display, align 8
  %17 = getelementptr inbounds i8, ptr %9, i64 88
  %18 = load i64, ptr %17, align 8
  %19 = inttoptr i64 %3 to ptr
  %20 = tail call i32 @llvm.smax.i32(i32 %4, i32 -32768)
  %21 = tail call i32 @llvm.smin.i32(i32 %20, i32 32767)
  %22 = tail call i32 @llvm.smax.i32(i32 %5, i32 -32768)
  %23 = tail call i32 @llvm.smin.i32(i32 %22, i32 32767)
  br i1 %or.cond5, label %24, label %29

24:                                               ; preds = %13
  %25 = add nuw nsw i32 %6, 1
  %.inv = icmp slt i32 %6, 65535
  %spec.select = select i1 %.inv, i32 %25, i32 65535
  %26 = add nuw nsw i32 %7, 1
  %.inv44 = icmp slt i32 %7, 65535
  %27 = select i1 %.inv44, i32 %26, i32 65535
  %28 = tail call i32 @XFillRectangle(ptr noundef %16, i64 noundef %18, ptr noundef %19, i32 noundef %21, i32 noundef %23, i32 noundef %spec.select, i32 noundef %27) #10
  br label %33

29:                                               ; preds = %13
  %30 = tail call i32 @llvm.umin.i32(i32 %6, i32 65535)
  %31 = tail call i32 @llvm.umin.i32(i32 %7, i32 65535)
  %32 = tail call i32 @XDrawRectangle(ptr noundef %16, i64 noundef %18, ptr noundef %19, i32 noundef %21, i32 noundef %23, i32 noundef %30, i32 noundef %31) #10
  br label %33

33:                                               ; preds = %29, %24
  tail call void @X11SD_DirectRenderNotify(ptr noundef %0, ptr noundef nonnull %9) #10
  br label %34

34:                                               ; preds = %8, %33
  ret void
}